target datalayout = "e-m:e-p270:32:32-p271:32:32-p272:64:64-i64:64-i128:128-f80:128-n8:16:32:64-S128"
target triple = "x86_64-pc-linux-gnu"

%struct.oidset = type { %struct.kh_oid_set }
%struct.kh_oid_set = type { i32, i32, i32, i32, ptr, ptr, ptr }
%struct.strbuf = type { i64, i64, ptr }
%struct.rev_info = type { ptr, %struct.object_array, ptr, %struct.object_array, %struct.rev_cmdline_info, %struct.list_objects_filter_options, %struct.ref_exclusions, ptr, ptr, ptr, %struct.pathspec, i32, i32, i32, i32, i64, i32, i32, %struct.date_mode, i32, i32, i32, i32, ptr, i32, i32, ptr, ptr, i32, ptr, ptr, %struct.ident_split, ptr, i32, ptr, ptr, ptr, i32, i32, i32, ptr, %struct.grep_opt, ptr, i32, i32, i64, i64, i64, i32, i32, ptr, ptr, ptr, %struct.diff_options, %struct.diff_options, ptr, %struct.decoration, %struct.decoration, %struct.decoration, %struct.display_notes_opt, ptr, ptr, ptr, ptr, ptr, i32, ptr, i32, i32, i32, %struct.decoration, ptr, ptr, ptr, ptr, ptr, ptr, ptr, i32, ptr, i32, ptr, %struct.oidset }
%struct.object_array = type { i32, i32, ptr }
%struct.rev_cmdline_info = type { i32, i32, ptr }
%struct.list_objects_filter_options = type { %struct.strbuf, i32, i8, ptr, i64, i64, i32, i64, i64, ptr }
%struct.ref_exclusions = type { %struct.string_list, %struct.strvec, i8 }
%struct.string_list = type { ptr, i64, i64, i8, ptr }
%struct.strvec = type { ptr, i64, i64 }
%struct.pathspec = type { i32, i8, i32, i32, ptr }
%struct.date_mode = type { i32, i32, ptr }
%struct.ident_split = type { ptr, ptr, ptr, ptr, ptr, ptr, ptr, ptr }
%struct.grep_opt = type { ptr, ptr, ptr, ptr, ptr, ptr, i32, i32, i32, i32, i32, i32, i32, i32, i32, i32, i32, i32, i32, i32, i32, i32, i32, i32, i32, i32, i32, i32, i32, i32, i32, i32, [9 x [75 x i8]], i32, i32, i32, i32, i32, i32, i32, ptr, ptr, ptr }
%struct.diff_options = type { ptr, ptr, i32, i32, ptr, i32, ptr, i64, i64, ptr, ptr, ptr, ptr, %struct.diff_flags, i32, i32, i32, i32, i32, i32, i32, i32, i32, i32, i32, i32, i32, i32, i32, i32, i32, i32, i32, i32, i32, i32, ptr, i32, ptr, i32, i32, ptr, i64, i64, i32, i32, i32, i32, ptr, i32, i32, ptr, i32, i32, ptr, ptr, i32, [3 x i8], %struct.pathspec, ptr, ptr, ptr, ptr, ptr, ptr, ptr, ptr, i32, ptr, i32, i32, ptr, ptr, i32 }
%struct.diff_flags = type { i32, i32, i32, i32, i32, i32, i32, i32, i32, i32, i32, i32, i32, i32, i32, i32, i32, i32, i32, i32, i32, i32, i32, i32, i32, i32, i32, i32, i32, i32, i32, i32, i32, i32, i32 }
%struct.display_notes_opt = type { i32, %struct.string_list }
%struct.decoration = type { ptr, i32, i32, ptr }
%struct.rev_list_info = type { ptr, i32, i32, i32, ptr }
%struct.object = type { i32, %struct.object_id }
%struct.object_id = type { [32 x i8], i32 }
%struct.object_info = type { ptr, ptr, ptr, ptr, ptr, ptr, i32, %union.anon }
%union.anon = type { %struct.anon }
%struct.anon = type { ptr, i64, i32 }

@the_repository = external global ptr, align 8
@arg_show_object_names = internal global i32 1, align 4
@show_disk_usage = internal global i32 0, align 4
@progress = internal global ptr null, align 8
@total_disk_usage = internal global i64 0, align 8
@stdout = external global ptr, align 8
@.str.37 = private unnamed_addr constant [4 x i8] c"%s\0A\00", align 1
@progress_counter = internal global i32 0, align 4
@.str.55 = private unnamed_addr constant [31 x i8] c"unable to get disk usage of %s\00", align 1

; Function Attrs: nounwind uwtable
define internal i64 @get_object_disk_usage(ptr noundef %0) #0 {
  %2 = alloca ptr, align 8
  %3 = alloca i64, align 8
  %4 = alloca %struct.object_info, align 8
  store ptr %0, ptr %2, align 8, !tbaa !137
  call void @llvm.lifetime.start.p0(i64 8, ptr %3) #9
  call void @llvm.lifetime.start.p0(i64 80, ptr %4) #9
  call void @llvm.memset.p0.i64(ptr align 8 %4, i8 0, i64 80, i1 false)
  %5 = getelementptr inbounds nuw %struct.object_info, ptr %4, i32 0, i32 2
  store ptr %3, ptr %5, align 8, !tbaa !153
  %6 = load ptr, ptr @the_repository, align 8, !tbaa !13
  %7 = load ptr, ptr %2, align 8, !tbaa !137
  %8 = getelementptr inbounds nuw %struct.object, ptr %7, i32 0, i32 1
  %9 = call i32 @oid_object_info_extended(ptr noundef %6, ptr noundef %8, ptr noundef %4, i32 noundef 0)
  %10 = icmp slt i32 %9, 0
  br i1 %10, label %11, label %16

11:                                               ; preds = %1
  %12 = call ptr @_(ptr noundef @.str.55)
  %13 = load ptr, ptr %2, align 8, !tbaa !137
  %14 = getelementptr inbounds nuw %struct.object, ptr %13, i32 0, i32 1
  %15 = call ptr @oid_to_hex(ptr noundef %14)
  call void (ptr, ...) @die(ptr noundef %12, ptr noundef %15) #11
  unreachable

16:                                               ; preds = %1
  %17 = load i64, ptr %3, align 8, !tbaa !104
  call void @llvm.lifetime.end.p0(i64 80, ptr %4) #9
  call void @llvm.lifetime.end.p0(i64 8, ptr %3) #9
  ret i64 %17
}

; Function Attrs: nounwind uwtable
define internal i32 @finish_object(ptr noundef %0, ptr noundef %1, ptr noundef %2) #0 {
  %4 = alloca i32, align 4
  %5 = alloca ptr, align 8
  %6 = alloca ptr, align 8
  %7 = alloca ptr, align 8
  %8 = alloca ptr, align 8
  %9 = alloca i32, align 4
  store ptr %0, ptr %5, align 8, !tbaa !137
  store ptr %1, ptr %6, align 8, !tbaa !11
  store ptr %2, ptr %7, align 8, !tbaa !105
  call void @llvm.lifetime.start.p0(i64 8, ptr %8) #9
  %10 = load ptr, ptr %7, align 8, !tbaa !105
  store ptr %10, ptr %8, align 8, !tbaa !112
  %11 = load ptr, ptr @the_repository, align 8, !tbaa !13
  %12 = load ptr, ptr %5, align 8, !tbaa !137
  %13 = getelementptr inbounds nuw %struct.object, ptr %12, i32 0, i32 1
  %14 = call i32 @oid_object_info_extended(ptr noundef %11, ptr noundef %13, ptr noundef null, i32 noundef 0)
  %15 = icmp slt i32 %14, 0
  br i1 %15, label %16, label %18

16:                                               ; preds = %3
  %17 = load ptr, ptr %5, align 8, !tbaa !137
  call void @finish_object__ma(ptr noundef %17)
  store i32 1, ptr %4, align 4
  store i32 1, ptr %9, align 4
  br label %45

18:                                               ; preds = %3
  %19 = load ptr, ptr %8, align 8, !tbaa !112
  %20 = getelementptr inbounds nuw %struct.rev_list_info, ptr %19, i32 0, i32 0
  %21 = load ptr, ptr %20, align 8, !tbaa !66
  %22 = getelementptr inbounds nuw %struct.rev_info, ptr %21, i32 0, i32 15
  %23 = load i64, ptr %22, align 8
  %24 = lshr i64 %23, 16
  %25 = and i64 %24, 1
  %26 = trunc i64 %25 to i32
  %27 = icmp ne i32 %26, 0
  br i1 %27, label %28, label %44

28:                                               ; preds = %18
  %29 = load ptr, ptr %5, align 8, !tbaa !137
  %30 = load i32, ptr %29, align 4
  %31 = and i32 %30, 1
  %32 = icmp ne i32 %31, 0
  br i1 %32, label %44, label %33

33:                                               ; preds = %28
  %34 = load ptr, ptr %5, align 8, !tbaa !137
  %35 = load i32, ptr %34, align 4
  %36 = lshr i32 %35, 1
  %37 = and i32 %36, 7
  %38 = icmp ne i32 %37, 1
  br i1 %38, label %39, label %44

39:                                               ; preds = %33
  %40 = load ptr, ptr @the_repository, align 8, !tbaa !13
  %41 = load ptr, ptr %5, align 8, !tbaa !137
  %42 = getelementptr inbounds nuw %struct.object, ptr %41, i32 0, i32 1
  %43 = call ptr @parse_object(ptr noundef %40, ptr noundef %42)
  br label %44

44:                                               ; preds = %39, %33, %28, %18
  store i32 0, ptr %4, align 4
  store i32 1, ptr %9, align 4
  br label %45

45:                                               ; preds = %44, %16
  call void @llvm.lifetime.end.p0(i64 8, ptr %8) #9
  %46 = load i32, ptr %4, align 4
  ret i32 %46
}

; Function Attrs: nounwind uwtable
define internal void @show_object(ptr noundef %0, ptr noundef %1, ptr noundef %2) #0 {
  %4 = alloca ptr, align 8
  %5 = alloca ptr, align 8
  %6 = alloca ptr, align 8
  %7 = alloca ptr, align 8
  %8 = alloca ptr, align 8
  %9 = alloca i32, align 4
  store ptr %0, ptr %4, align 8, !tbaa !137
  store ptr %1, ptr %5, align 8, !tbaa !11
  store ptr %2, ptr %6, align 8, !tbaa !105
  call void @llvm.lifetime.start.p0(i64 8, ptr %7) #9
  %10 = load ptr, ptr %6, align 8, !tbaa !105
  store ptr %10, ptr %7, align 8, !tbaa !112
  call void @llvm.lifetime.start.p0(i64 8, ptr %8) #9
  %11 = load ptr, ptr %7, align 8, !tbaa !112
  %12 = getelementptr inbounds nuw %struct.rev_list_info, ptr %11, i32 0, i32 0
  %13 = load ptr, ptr %12, align 8, !tbaa !66
  store ptr %13, ptr %8, align 8, !tbaa !107
  %14 = load ptr, ptr %4, align 8, !tbaa !137
  %15 = load ptr, ptr %5, align 8, !tbaa !11
  %16 = load ptr, ptr %6, align 8, !tbaa !105
  %17 = call i32 @finish_object(ptr noundef %14, ptr noundef %15, ptr noundef %16)
  %18 = icmp ne i32 %17, 0
  br i1 %18, label %19, label %20

19:                                               ; preds = %3
  store i32 1, ptr %9, align 4
  br label %65

20:                                               ; preds = %3
  %21 = load ptr, ptr @progress, align 8, !tbaa !84
  %22 = load i32, ptr @progress_counter, align 4, !tbaa !4
  %23 = add i32 %22, 1
  store i32 %23, ptr @progress_counter, align 4, !tbaa !4
  %24 = zext i32 %23 to i64
  call void @display_progress(ptr noundef %21, i64 noundef %24)
  %25 = load i32, ptr @show_disk_usage, align 4, !tbaa !4
  %26 = icmp ne i32 %25, 0
  br i1 %26, label %27, label %32

27:                                               ; preds = %20
  %28 = load ptr, ptr %4, align 8, !tbaa !137
  %29 = call i64 @get_object_disk_usage(ptr noundef %28)
  %30 = load i64, ptr @total_disk_usage, align 8, !tbaa !104
  %31 = add nsw i64 %30, %29
  store i64 %31, ptr @total_disk_usage, align 8, !tbaa !104
  br label %32

32:                                               ; preds = %27, %20
  %33 = load ptr, ptr %7, align 8, !tbaa !112
  %34 = getelementptr inbounds nuw %struct.rev_list_info, ptr %33, i32 0, i32 1
  %35 = load i32, ptr %34, align 8, !tbaa !70
  %36 = and i32 %35, 2
  %37 = icmp ne i32 %36, 0
  br i1 %37, label %38, label %39

38:                                               ; preds = %32
  store i32 1, ptr %9, align 4
  br label %65

39:                                               ; preds = %32
  %40 = load ptr, ptr %8, align 8, !tbaa !107
  %41 = getelementptr inbounds nuw %struct.rev_info, ptr %40, i32 0, i32 15
  %42 = load i64, ptr %41, align 8
  %43 = lshr i64 %42, 24
  %44 = and i64 %43, 1
  %45 = trunc i64 %44 to i32
  %46 = icmp ne i32 %45, 0
  br i1 %46, label %47, label %52

47:                                               ; preds = %39
  %48 = load ptr, ptr %8, align 8, !tbaa !107
  %49 = getelementptr inbounds nuw %struct.rev_info, ptr %48, i32 0, i32 68
  %50 = load i32, ptr %49, align 4, !tbaa !102
  %51 = add nsw i32 %50, 1
  store i32 %51, ptr %49, align 4, !tbaa !102
  store i32 1, ptr %9, align 4
  br label %65

52:                                               ; preds = %39
  %53 = load i32, ptr @arg_show_object_names, align 4, !tbaa !4
  %54 = icmp ne i32 %53, 0
  br i1 %54, label %55, label %59

55:                                               ; preds = %52
  %56 = load ptr, ptr @stdout, align 8, !tbaa !120
  %57 = load ptr, ptr %4, align 8, !tbaa !137
  %58 = load ptr, ptr %5, align 8, !tbaa !11
  call void @show_object_with_name(ptr noundef %56, ptr noundef %57, ptr noundef %58)
  br label %64

59:                                               ; preds = %52
  %60 = load ptr, ptr %4, align 8, !tbaa !137
  %61 = getelementptr inbounds nuw %struct.object, ptr %60, i32 0, i32 1
  %62 = call ptr @oid_to_hex(ptr noundef %61)
  %63 = call i32 (ptr, ...) @printf(ptr noundef @.str.37, ptr noundef %62)
  br label %64

64:                                               ; preds = %59, %55
  store i32 0, ptr %9, align 4
  br label %65

65:                                               ; preds = %64, %47, %38, %19
  call void @llvm.lifetime.end.p0(i64 8, ptr %8) #9
  call void @llvm.lifetime.end.p0(i64 8, ptr %7) #9
  %66 = load i32, ptr %9, align 4
  switch i32 %66, label %68 [
    i32 0, label %67
    i32 1, label %67
  ]

67:                                               ; preds = %65, %65
  ret void

68:                                               ; preds = %65
  unreachable
}